; Function Attrs: mustprogress uwtable
define hidden noundef zeroext i1 @_ZN4cvc58internal6theory11quantifiers4inst15TriggerTermInfo23isUsableRelationTriggerENS0_12NodeTemplateILb1EEE(ptr noundef readonly captures(none) %0) local_unnamed_addr #3 align 2 personality ptr @__gxx_personality_v0 {
  %2 = alloca i8, align 1
  %3 = alloca i8, align 1
  %4 = alloca %"class.cvc5::internal::NodeTemplate", align 8
  %5 = alloca %"class.cvc5::internal::NodeTemplate", align 8
  call void @llvm.lifetime.start.p0(i64 1, ptr nonnull %2) #20
  call void @llvm.lifetime.start.p0(i64 1, ptr nonnull %3) #20
  call void @llvm.lifetime.start.p0(i64 8, ptr nonnull %4) #20
  %6 = load atomic i8, ptr @_ZGVZN4cvc58internal4expr9NodeValue4nullEvE6s_null acquire, align 8
  %7 = icmp eq i8 %6, 0
  br i1 %7, label %8, label %_ZN4cvc58internal12NodeTemplateILb1EEC2Ev.exit, !prof !21

8:                                                ; preds = %1
  %9 = tail call i32 @__cxa_guard_acquire(ptr nonnull @_ZGVZN4cvc58internal4expr9NodeValue4nullEvE6s_null) #20
  %.not.i.i = icmp eq i32 %9, 0
  br i1 %.not.i.i, label %_ZN4cvc58internal12NodeTemplateILb1EEC2Ev.exit, label %10

10:                                               ; preds = %8
  %11 = invoke noalias noundef nonnull dereferenceable(24) ptr @_Znwm(i64 noundef 24) #21
          to label %12 unwind label %14

12:                                               ; preds = %10
  store i64 1152920405095219200, ptr %11, align 8
  %13 = getelementptr inbounds nuw i8, ptr %11, i64 8
  tail call void @llvm.memset.p0.i64(ptr noundef nonnull align 8 dereferenceable(16) %13, i8 0, i64 16, i1 false)
  store ptr %11, ptr @_ZZN4cvc58internal4expr9NodeValue4nullEvE6s_null, align 8, !tbaa !22
  tail call void @__cxa_guard_release(ptr nonnull @_ZGVZN4cvc58internal4expr9NodeValue4nullEvE6s_null) #20
  br label %_ZN4cvc58internal12NodeTemplateILb1EEC2Ev.exit

common.resume:                                    ; preds = %63, %14
  %common.resume.op = phi { ptr, i32 } [ %15, %14 ], [ %.pn, %63 ]
  resume { ptr, i32 } %common.resume.op

14:                                               ; preds = %10
  %15 = landingpad { ptr, i32 }
          cleanup
  tail call void @__cxa_guard_abort(ptr nonnull @_ZGVZN4cvc58internal4expr9NodeValue4nullEvE6s_null) #20
  br label %common.resume

_ZN4cvc58internal12NodeTemplateILb1EEC2Ev.exit:   ; preds = %1, %8, %12
  %16 = load ptr, ptr @_ZZN4cvc58internal4expr9NodeValue4nullEvE6s_null, align 8, !tbaa !22
  store ptr %16, ptr %4, align 8, !tbaa !8
  %17 = load ptr, ptr %0, align 8, !tbaa !8
  store ptr %17, ptr %5, align 8, !tbaa !8
  %18 = load i64, ptr %17, align 8
  %19 = lshr i64 %18, 40
  %20 = trunc nuw nsw i64 %19 to i32
  %21 = and i32 %20, 1048575
  %22 = icmp samesign ult i32 %21, 1048574
  br i1 %22, label %23, label %28, !prof !11

23:                                               ; preds = %_ZN4cvc58internal12NodeTemplateILb1EEC2Ev.exit
  %24 = add i64 %18, 1099511627776
  %25 = and i64 %24, 1152920405095219200
  %26 = and i64 %18, -1152920405095219201
  %27 = or disjoint i64 %25, %26
  store i64 %27, ptr %17, align 8
  br label %_ZN4cvc58internal12NodeTemplateILb1EEC2ERKS2_.exit

28:                                               ; preds = %_ZN4cvc58internal12NodeTemplateILb1EEC2Ev.exit
  %29 = icmp eq i32 %21, 1048574
  br i1 %29, label %30, label %_ZN4cvc58internal12NodeTemplateILb1EEC2ERKS2_.exit, !prof !12

30:                                               ; preds = %28
  %31 = or i64 %18, 1152920405095219200
  store i64 %31, ptr %17, align 8
  invoke void @_ZN4cvc58internal4expr9NodeValue20markRefCountMaxedOutEv(ptr noundef nonnull align 8 dereferenceable(24) %17)
          to label %_ZN4cvc58internal12NodeTemplateILb1EEC2ERKS2_.exit unwind label %59

_ZN4cvc58internal12NodeTemplateILb1EEC2ERKS2_.exit: ; preds = %28, %23, %30
  %32 = invoke noundef zeroext i1 @_ZN4cvc58internal6theory11quantifiers4inst15TriggerTermInfo23isUsableRelationTriggerENS0_12NodeTemplateILb1EEERbS7_RS6_(ptr noundef nonnull %5, ptr noundef nonnull align 1 dereferenceable(1) %2, ptr noundef nonnull align 1 dereferenceable(1) %3, ptr noundef nonnull align 8 dereferenceable(8) %4)
          to label %33 unwind label %61

33:                                               ; preds = %_ZN4cvc58internal12NodeTemplateILb1EEC2ERKS2_.exit
  %34 = load i64, ptr %17, align 8
  %35 = and i64 %34, 1152920405095219200
  %.not.i.i3 = icmp eq i64 %35, 1152920405095219200
  br i1 %.not.i.i3, label %_ZN4cvc58internal12NodeTemplateILb1EED2Ev.exit, label %36, !prof !12

36:                                               ; preds = %33
  %37 = add i64 %34, 1152920405095219200
  %38 = and i64 %37, 1152920405095219200
  %39 = and i64 %34, -1152920405095219201
  %40 = or disjoint i64 %38, %39
  store i64 %40, ptr %17, align 8
  %41 = icmp eq i64 %38, 0
  br i1 %41, label %42, label %_ZN4cvc58internal12NodeTemplateILb1EED2Ev.exit, !prof !12

42:                                               ; preds = %36
  invoke void @_ZN4cvc58internal4expr9NodeValue15markForDeletionEv(ptr noundef nonnull align 8 dereferenceable(24) %17)
          to label %_ZN4cvc58internal12NodeTemplateILb1EED2Ev.exit unwind label %43

43:                                               ; preds = %42
  %44 = landingpad { ptr, i32 }
          catch ptr null
  %45 = extractvalue { ptr, i32 } %44, 0
  tail call void @__clang_call_terminate(ptr %45) #19
  unreachable

_ZN4cvc58internal12NodeTemplateILb1EED2Ev.exit:   ; preds = %33, %36, %42
  %46 = load ptr, ptr %4, align 8, !tbaa !8
  %47 = load i64, ptr %46, align 8
  %48 = and i64 %47, 1152920405095219200
  %.not.i.i4 = icmp eq i64 %48, 1152920405095219200
  br i1 %.not.i.i4, label %_ZN4cvc58internal12NodeTemplateILb1EED2Ev.exit5, label %49, !prof !12

49:                                               ; preds = %_ZN4cvc58internal12NodeTemplateILb1EED2Ev.exit
  %50 = add i64 %47, 1152920405095219200
  %51 = and i64 %50, 1152920405095219200
  %52 = and i64 %47, -1152920405095219201
  %53 = or disjoint i64 %51, %52
  store i64 %53, ptr %46, align 8
  %54 = icmp eq i64 %51, 0
  br i1 %54, label %55, label %_ZN4cvc58internal12NodeTemplateILb1EED2Ev.exit5, !prof !12

55:                                               ; preds = %49
  invoke void @_ZN4cvc58internal4expr9NodeValue15markForDeletionEv(ptr noundef nonnull align 8 dereferenceable(24) %46)
          to label %_ZN4cvc58internal12NodeTemplateILb1EED2Ev.exit5 unwind label %56

56:                                               ; preds = %55
  %57 = landingpad { ptr, i32 }
          catch ptr null
  %58 = extractvalue { ptr, i32 } %57, 0
  tail call void @__clang_call_terminate(ptr %58) #19
  unreachable

_ZN4cvc58internal12NodeTemplateILb1EED2Ev.exit5:  ; preds = %_ZN4cvc58internal12NodeTemplateILb1EED2Ev.exit, %49, %55
  call void @llvm.lifetime.end.p0(i64 8, ptr nonnull %4) #20
  call void @llvm.lifetime.end.p0(i64 1, ptr nonnull %3) #20
  call void @llvm.lifetime.end.p0(i64 1, ptr nonnull %2) #20
  ret i1 %32

59:                                               ; preds = %30
  %60 = landingpad { ptr, i32 }
          cleanup
  br label %63

61:                                               ; preds = %_ZN4cvc58internal12NodeTemplateILb1EEC2ERKS2_.exit
  %62 = landingpad { ptr, i32 }
          cleanup
  call void @_ZN4cvc58internal12NodeTemplateILb1EED2Ev(ptr noundef nonnull align 8 dereferenceable(8) %5) #20
  br label %63

63:                                               ; preds = %61, %59
  %.pn = phi { ptr, i32 } [ %62, %61 ], [ %60, %59 ]
  call void @_ZN4cvc58internal12NodeTemplateILb1EED2Ev(ptr noundef nonnull align 8 dereferenceable(8) %4) #20
  call void @llvm.lifetime.end.p0(i64 8, ptr nonnull %4) #20
  call void @llvm.lifetime.end.p0(i64 1, ptr nonnull %3) #20
  call void @llvm.lifetime.end.p0(i64 1, ptr nonnull %2) #20
  br label %common.resume
}